; Function Attrs: mustprogress uwtable
define dso_local i64 @_ZNK3tev11ImageButton14preferred_sizeEP10NVGcontext(ptr noundef nonnull align 16 dereferenceable(376) %0, ptr noundef %1) unnamed_addr #3 align 2 personality ptr @__gxx_personality_v0 {
  %3 = alloca %"class.std::__1::basic_string", align 8
  %4 = getelementptr inbounds i8, ptr %0, i64 120
  %5 = load i32, ptr %4, align 8
  %6 = sitofp i32 %5 to float
  tail call void @nvgFontSize(ptr noundef %1, float noundef %6)
  tail call void @nvgFontFace(ptr noundef %1, ptr noundef nonnull @.str)
  %7 = getelementptr inbounds i8, ptr %0, i64 336
  %8 = load i64, ptr %7, align 16
  call void @_ZNSt3__19to_stringEm(ptr dead_on_unwind nonnull writable sret(%"class.std::__1::basic_string") align 8 %3, i64 noundef %8)
  %9 = load i8, ptr %3, align 8
  %10 = and i8 %9, 1
  %.not.i.i.i = icmp eq i8 %10, 0
  %11 = getelementptr inbounds i8, ptr %3, i64 16
  %12 = load ptr, ptr %11, align 8
  %13 = getelementptr inbounds i8, ptr %3, i64 1
  %14 = select i1 %.not.i.i.i, ptr %13, ptr %12
  %15 = invoke float @nvgTextBounds(ptr noundef %1, float noundef 0.000000e+00, float noundef 0.000000e+00, ptr noundef %14, ptr noundef null, ptr noundef null)
          to label %16 unwind label %35

16:                                               ; preds = %2
  %17 = load i32, ptr %4, align 8
  %18 = sitofp i32 %17 to float
  invoke void @nvgFontSize(ptr noundef %1, float noundef %18)
          to label %19 unwind label %35

19:                                               ; preds = %16
  invoke void @nvgFontFace(ptr noundef %1, ptr noundef nonnull @.str.3)
          to label %20 unwind label %35

20:                                               ; preds = %19
  %21 = getelementptr inbounds i8, ptr %0, i64 136
  %22 = load i8, ptr %21, align 8
  %23 = and i8 %22, 1
  %.not.i.i.i10 = icmp eq i8 %23, 0
  %24 = getelementptr inbounds i8, ptr %0, i64 152
  %25 = load ptr, ptr %24, align 8
  %26 = getelementptr inbounds i8, ptr %0, i64 137
  %27 = select i1 %.not.i.i.i10, ptr %26, ptr %25
  %28 = invoke float @nvgTextBounds(ptr noundef %1, float noundef 0.000000e+00, float noundef 0.000000e+00, ptr noundef %27, ptr noundef null, ptr noundef null)
          to label %29 unwind label %35

29:                                               ; preds = %20
  %30 = fadd float %15, %28
  %31 = fptosi float %30 to i32
  %32 = add nsw i32 %31, 15
  %33 = load i32, ptr %4, align 8
  %34 = add nsw i32 %33, 6
  call void @_ZNSt3__112basic_stringIcNS_11char_traitsIcEENS_9allocatorIcEEED1Ev(ptr noundef nonnull align 8 dereferenceable(24) %3) #24
  %.sroa.2.0.insert.ext = zext i32 %34 to i64
  %.sroa.2.0.insert.shift = shl nuw i64 %.sroa.2.0.insert.ext, 32
  %.sroa.0.0.insert.ext = zext i32 %32 to i64
  %.sroa.0.0.insert.insert = or disjoint i64 %.sroa.2.0.insert.shift, %.sroa.0.0.insert.ext
  ret i64 %.sroa.0.0.insert.insert

35:                                               ; preds = %20, %19, %16, %2
  %36 = landingpad { ptr, i32 }
          cleanup
  call void @_ZNSt3__112basic_stringIcNS_11char_traitsIcEENS_9allocatorIcEEED1Ev(ptr noundef nonnull align 8 dereferenceable(24) %3) #24
  resume { ptr, i32 } %36
}